target datalayout = "e-m:e-p270:32:32-p271:32:32-p272:64:64-i64:64-i128:128-f80:128-n8:16:32:64-S128"
target triple = "x86_64-pc-linux-gnu"

%struct.EXRContext = type { ptr, ptr, ptr, %struct.ExrDSPContext, i32, i32, [4 x i32], ptr, i32, i32, i32, i32, i32, i32, i32, i32, i32, i32, %struct.EXRTileAttribute, i32, i32, i32, i32, %struct.GetByteContext, ptr, i32, ptr, i32, i32, i32, ptr, ptr, i32, ptr, i32, float, [65536 x i16], %struct.Float2HalfTables, %struct.Half2FloatTables }
%struct.ExrDSPContext = type { ptr, ptr }
%struct.EXRTileAttribute = type { i32, i32, i32, i32 }
%struct.GetByteContext = type { ptr, ptr, ptr }
%struct.Float2HalfTables = type { [512 x i16], [512 x i8] }
%struct.Half2FloatTables = type { [3072 x i32], [64 x i32], [64 x i16] }

@.str.108 = private unnamed_addr constant [46 x i8] c"Unknown data type %s for header variable %s.\0A\00", align 1

; Function Attrs: alwaysinline nounwind uwtable
define internal i32 @bytestream_get_le32(ptr noundef %0) #5 {
  %2 = alloca ptr, align 8
  store ptr %0, ptr %2, align 8, !tbaa !179
  %3 = load ptr, ptr %2, align 8, !tbaa !179
  %4 = load ptr, ptr %3, align 8, !tbaa !92
  %5 = getelementptr inbounds i8, ptr %4, i64 4
  store ptr %5, ptr %3, align 8, !tbaa !92
  %6 = load ptr, ptr %2, align 8, !tbaa !179
  %7 = load ptr, ptr %6, align 8, !tbaa !92
  %8 = getelementptr inbounds i8, ptr %7, i64 -4
  %9 = load i32, ptr %8, align 1, !tbaa !47
  ret i32 %9
}

; Function Attrs: alwaysinline nounwind uwtable
define internal i32 @bytestream2_get_le32u(ptr noundef %0) #5 {
  %2 = alloca ptr, align 8
  store ptr %0, ptr %2, align 8, !tbaa !59
  %3 = load ptr, ptr %2, align 8, !tbaa !59
  %4 = getelementptr inbounds nuw %struct.GetByteContext, ptr %3, i32 0, i32 0
  %5 = call i32 @bytestream_get_le32(ptr noundef %4)
  ret i32 %5
}

; Function Attrs: alwaysinline nounwind uwtable
define internal i32 @bytestream2_get_le32(ptr noundef %0) #5 {
  %2 = alloca i32, align 4
  %3 = alloca ptr, align 8
  store ptr %0, ptr %3, align 8, !tbaa !59
  %4 = load ptr, ptr %3, align 8, !tbaa !59
  %5 = getelementptr inbounds nuw %struct.GetByteContext, ptr %4, i32 0, i32 1
  %6 = load ptr, ptr %5, align 8, !tbaa !113
  %7 = load ptr, ptr %3, align 8, !tbaa !59
  %8 = getelementptr inbounds nuw %struct.GetByteContext, ptr %7, i32 0, i32 0
  %9 = load ptr, ptr %8, align 8, !tbaa !111
  %10 = ptrtoint ptr %6 to i64
  %11 = ptrtoint ptr %9 to i64
  %12 = sub i64 %10, %11
  %13 = icmp slt i64 %12, 4
  br i1 %13, label %14, label %20

14:                                               ; preds = %1
  %15 = load ptr, ptr %3, align 8, !tbaa !59
  %16 = getelementptr inbounds nuw %struct.GetByteContext, ptr %15, i32 0, i32 1
  %17 = load ptr, ptr %16, align 8, !tbaa !113
  %18 = load ptr, ptr %3, align 8, !tbaa !59
  %19 = getelementptr inbounds nuw %struct.GetByteContext, ptr %18, i32 0, i32 0
  store ptr %17, ptr %19, align 8, !tbaa !111
  store i32 0, ptr %2, align 4
  br label %23

20:                                               ; preds = %1
  %21 = load ptr, ptr %3, align 8, !tbaa !59
  %22 = call i32 @bytestream2_get_le32u(ptr noundef %21)
  store i32 %22, ptr %2, align 4
  br label %23

23:                                               ; preds = %20, %14
  %24 = load i32, ptr %2, align 4
  ret i32 %24
}

; Function Attrs: alwaysinline nounwind uwtable
define internal i32 @bytestream2_get_bytes_left(ptr noundef %0) #5 {
  %2 = alloca ptr, align 8
  store ptr %0, ptr %2, align 8, !tbaa !59
  %3 = load ptr, ptr %2, align 8, !tbaa !59
  %4 = getelementptr inbounds nuw %struct.GetByteContext, ptr %3, i32 0, i32 1
  %5 = load ptr, ptr %4, align 8, !tbaa !113
  %6 = load ptr, ptr %2, align 8, !tbaa !59
  %7 = getelementptr inbounds nuw %struct.GetByteContext, ptr %6, i32 0, i32 0
  %8 = load ptr, ptr %7, align 8, !tbaa !111
  %9 = ptrtoint ptr %5 to i64
  %10 = ptrtoint ptr %8 to i64
  %11 = sub i64 %9, %10
  %12 = trunc i64 %11 to i32
  ret i32 %12
}

; Function Attrs: nounwind uwtable
define internal i32 @check_header_variable(ptr noundef %0, ptr noundef %1, ptr noundef %2, i32 noundef %3) #1 {
  %5 = alloca ptr, align 8
  %6 = alloca ptr, align 8
  %7 = alloca ptr, align 8
  %8 = alloca i32, align 4
  %9 = alloca ptr, align 8
  %10 = alloca i32, align 4
  store ptr %0, ptr %5, align 8, !tbaa !29
  store ptr %1, ptr %6, align 8, !tbaa !92
  store ptr %2, ptr %7, align 8, !tbaa !92
  store i32 %3, ptr %8, align 4, !tbaa !46
  call void @llvm.lifetime.start.p0(i64 8, ptr %9) #13
  %11 = load ptr, ptr %5, align 8, !tbaa !29
  %12 = getelementptr inbounds nuw %struct.EXRContext, ptr %11, i32 0, i32 23
  store ptr %12, ptr %9, align 8, !tbaa !59
  call void @llvm.lifetime.start.p0(i64 4, ptr %10) #13
  store i32 -1, ptr %10, align 4, !tbaa !46
  %13 = load ptr, ptr %9, align 8, !tbaa !59
  %14 = call i32 @bytestream2_get_bytes_left(ptr noundef %13)
  %15 = load i32, ptr %8, align 4, !tbaa !46
  %16 = icmp uge i32 %14, %15
  br i1 %16, label %17, label %69

17:                                               ; preds = %4
  %18 = load ptr, ptr %9, align 8, !tbaa !59
  %19 = getelementptr inbounds nuw %struct.GetByteContext, ptr %18, i32 0, i32 0
  %20 = load ptr, ptr %19, align 8, !tbaa !111
  %21 = load ptr, ptr %6, align 8, !tbaa !92
  %22 = call i32 @strcmp(ptr noundef %20, ptr noundef %21) #16
  %23 = icmp ne i32 %22, 0
  br i1 %23, label %69, label %24

24:                                               ; preds = %17
  %25 = load ptr, ptr %6, align 8, !tbaa !92
  %26 = call i64 @strlen(ptr noundef %25) #16
  %27 = add i64 %26, 1
  %28 = load ptr, ptr %9, align 8, !tbaa !59
  %29 = getelementptr inbounds nuw %struct.GetByteContext, ptr %28, i32 0, i32 0
  %30 = load ptr, ptr %29, align 8, !tbaa !111
  %31 = getelementptr inbounds nuw i8, ptr %30, i64 %27
  store ptr %31, ptr %29, align 8, !tbaa !111
  %32 = load ptr, ptr %9, align 8, !tbaa !59
  %33 = getelementptr inbounds nuw %struct.GetByteContext, ptr %32, i32 0, i32 0
  %34 = load ptr, ptr %33, align 8, !tbaa !111
  %35 = load ptr, ptr %7, align 8, !tbaa !92
  %36 = call i32 @strcmp(ptr noundef %34, ptr noundef %35) #16
  %37 = icmp ne i32 %36, 0
  br i1 %37, label %54, label %38

38:                                               ; preds = %24
  %39 = load ptr, ptr %7, align 8, !tbaa !92
  %40 = call i64 @strlen(ptr noundef %39) #16
  %41 = add i64 %40, 1
  %42 = load ptr, ptr %9, align 8, !tbaa !59
  %43 = getelementptr inbounds nuw %struct.GetByteContext, ptr %42, i32 0, i32 0
  %44 = load ptr, ptr %43, align 8, !tbaa !111
  %45 = getelementptr inbounds nuw i8, ptr %44, i64 %41
  store ptr %45, ptr %43, align 8, !tbaa !111
  %46 = load ptr, ptr %9, align 8, !tbaa !59
  %47 = call i32 @bytestream2_get_le32(ptr noundef %46)
  store i32 %47, ptr %10, align 4, !tbaa !46
  %48 = load i32, ptr %10, align 4, !tbaa !46
  %49 = load ptr, ptr %9, align 8, !tbaa !59
  %50 = call i32 @bytestream2_get_bytes_left(ptr noundef %49)
  %51 = icmp sgt i32 %48, %50
  br i1 %51, label %52, label %53

52:                                               ; preds = %38
  store i32 0, ptr %10, align 4, !tbaa !46
  br label %53

53:                                               ; preds = %52, %38
  br label %68

54:                                               ; preds = %24
  %55 = load ptr, ptr %6, align 8, !tbaa !92
  %56 = call i64 @strlen(ptr noundef %55) #16
  %57 = add i64 %56, 1
  %58 = load ptr, ptr %9, align 8, !tbaa !59
  %59 = getelementptr inbounds nuw %struct.GetByteContext, ptr %58, i32 0, i32 0
  %60 = load ptr, ptr %59, align 8, !tbaa !111
  %61 = sub i64 0, %57
  %62 = getelementptr inbounds i8, ptr %60, i64 %61
  store ptr %62, ptr %59, align 8, !tbaa !111
  %63 = load ptr, ptr %5, align 8, !tbaa !29
  %64 = getelementptr inbounds nuw %struct.EXRContext, ptr %63, i32 0, i32 2
  %65 = load ptr, ptr %64, align 8, !tbaa !44
  %66 = load ptr, ptr %7, align 8, !tbaa !92
  %67 = load ptr, ptr %6, align 8, !tbaa !92
  call void (ptr, i32, ptr, ...) @av_log(ptr noundef %65, i32 noundef 24, ptr noundef @.str.108, ptr noundef %66, ptr noundef %67)
  br label %68

68:                                               ; preds = %54, %53
  br label %69

69:                                               ; preds = %68, %17, %4
  %70 = load i32, ptr %10, align 4, !tbaa !46
  call void @llvm.lifetime.end.p0(i64 4, ptr %10) #13
  call void @llvm.lifetime.end.p0(i64 8, ptr %9) #13
  ret i32 %70
}