; Function Attrs: nounwind uwtable
define internal fastcc i32 @check_header_variable(ptr noundef captures(none) %0, ptr noundef %1, ptr noundef %2, i32 noundef range(i32 1, 39) %3) unnamed_addr #1 {
  %5 = getelementptr inbounds nuw i8, ptr %0, i64 144
  %6 = getelementptr inbounds nuw i8, ptr %0, i64 152
  %7 = load ptr, ptr %6, align 8, !tbaa !55
  %8 = load ptr, ptr %5, align 8, !tbaa !53
  %9 = ptrtoint ptr %7 to i64
  %10 = ptrtoint ptr %8 to i64
  %11 = sub i64 %9, %10
  %12 = trunc i64 %11 to i32
  %.not = icmp ugt i32 %3, %12
  br i1 %.not, label %40, label %13

13:                                               ; preds = %4
  %14 = tail call i32 @strcmp(ptr noundef nonnull dereferenceable(1) %8, ptr noundef nonnull dereferenceable(1) %1) #16
  %.not20 = icmp eq i32 %14, 0
  br i1 %.not20, label %15, label %40

15:                                               ; preds = %13
  %16 = tail call i64 @strlen(ptr noundef nonnull dereferenceable(1) %1) #16
  %17 = getelementptr i8, ptr %8, i64 %16
  %18 = getelementptr i8, ptr %17, i64 1
  store ptr %18, ptr %5, align 8, !tbaa !53
  %19 = tail call i32 @strcmp(ptr noundef nonnull dereferenceable(1) %18, ptr noundef nonnull dereferenceable(1) %2) #16
  %.not21 = icmp eq i32 %19, 0
  br i1 %.not21, label %20, label %34

20:                                               ; preds = %15
  %21 = tail call i64 @strlen(ptr noundef nonnull dereferenceable(1) %2) #16
  %22 = getelementptr i8, ptr %18, i64 %21
  %23 = getelementptr i8, ptr %22, i64 1
  %24 = ptrtoint ptr %23 to i64
  %25 = sub i64 %9, %24
  %26 = icmp slt i64 %25, 4
  br i1 %26, label %27, label %28

27:                                               ; preds = %20
  store ptr %7, ptr %5, align 8, !tbaa !53
  br label %bytestream2_get_le32.exit

28:                                               ; preds = %20
  %29 = getelementptr i8, ptr %22, i64 5
  store ptr %29, ptr %5, align 8, !tbaa !66
  %30 = load i32, ptr %23, align 1, !tbaa !44
  %.pre = ptrtoint ptr %29 to i64
  br label %bytestream2_get_le32.exit

bytestream2_get_le32.exit:                        ; preds = %27, %28
  %.pre-phi = phi i64 [ %9, %27 ], [ %.pre, %28 ]
  %.0.i = phi i32 [ 0, %27 ], [ %30, %28 ]
  %31 = sub i64 %9, %.pre-phi
  %32 = trunc i64 %31 to i32
  %33 = icmp sgt i32 %.0.i, %32
  %spec.select = select i1 %33, i32 0, i32 %.0.i
  br label %40

34:                                               ; preds = %15
  %35 = tail call i64 @strlen(ptr noundef nonnull dereferenceable(1) %1) #16
  %36 = xor i64 %35, -1
  %37 = getelementptr inbounds i8, ptr %18, i64 %36
  store ptr %37, ptr %5, align 8, !tbaa !53
  %38 = getelementptr inbounds nuw i8, ptr %0, i64 16
  %39 = load ptr, ptr %38, align 8, !tbaa !39
  tail call void (ptr, i32, ptr, ...) @av_log(ptr noundef %39, i32 noundef 24, ptr noundef nonnull @.str.108, ptr noundef nonnull %2, ptr noundef nonnull %1) #14
  br label %40

40:                                               ; preds = %bytestream2_get_le32.exit, %34, %13, %4
  %.0 = phi i32 [ -1, %13 ], [ -1, %34 ], [ -1, %4 ], [ %spec.select, %bytestream2_get_le32.exit ]
  ret i32 %.0
}